target datalayout = "e-m:e-p270:32:32-p271:32:32-p272:64:64-i64:64-i128:128-f80:128-n8:16:32:64-S128"
target triple = "x86_64-pc-linux-gnu"

%struct.key2any_ctx_st = type { ptr, i32, i32, ptr, %struct.ossl_passphrase_data_st }
%struct.ossl_passphrase_data_st = type { i32, %union.anon, i8, ptr, i64 }
%union.anon = type { %struct.anon }
%struct.anon = type { ptr, i64 }

; Function Attrs: nounwind uwtable
define internal i32 @key_to_epki_pem_priv_bio(ptr noundef %0, ptr noundef %1, i32 noundef %2, ptr noundef %3, ptr noundef %4, ptr noundef %5, ptr noundef %6) #0 {
  %8 = alloca i32, align 4
  %9 = alloca ptr, align 8
  %10 = alloca ptr, align 8
  %11 = alloca i32, align 4
  %12 = alloca ptr, align 8
  %13 = alloca ptr, align 8
  %14 = alloca ptr, align 8
  %15 = alloca ptr, align 8
  %16 = alloca i32, align 4
  %17 = alloca ptr, align 8
  %18 = alloca i32, align 4
  %19 = alloca ptr, align 8
  %20 = alloca i32, align 4
  store ptr %0, ptr %9, align 8, !tbaa !31
  store ptr %1, ptr %10, align 8, !tbaa !3
  store i32 %2, ptr %11, align 4, !tbaa !25
  store ptr %3, ptr %12, align 8, !tbaa !23
  store ptr %4, ptr %13, align 8, !tbaa !3
  store ptr %5, ptr %14, align 8, !tbaa !3
  store ptr %6, ptr %15, align 8, !tbaa !7
  call void @llvm.lifetime.start.p0(i64 4, ptr %16) #4
  store i32 0, ptr %16, align 4, !tbaa !25
  call void @llvm.lifetime.start.p0(i64 8, ptr %17) #4
  store ptr null, ptr %17, align 8, !tbaa !3
  call void @llvm.lifetime.start.p0(i64 4, ptr %18) #4
  store i32 -1, ptr %18, align 4, !tbaa !25
  call void @llvm.lifetime.start.p0(i64 8, ptr %19) #4
  %21 = load ptr, ptr %15, align 8, !tbaa !7
  %22 = getelementptr inbounds nuw %struct.key2any_ctx_st, ptr %21, i32 0, i32 2
  %23 = load i32, ptr %22, align 4, !tbaa !24
  %24 = icmp ne i32 %23, 0
  br i1 %24, label %26, label %25

25:                                               ; preds = %7
  store i32 0, ptr %8, align 4
  store i32 1, ptr %20, align 4
  br label %56

26:                                               ; preds = %7
  %27 = load ptr, ptr %13, align 8, !tbaa !3
  %28 = icmp ne ptr %27, null
  br i1 %28, label %29, label %39

29:                                               ; preds = %26
  %30 = load ptr, ptr %13, align 8, !tbaa !3
  %31 = load ptr, ptr %10, align 8, !tbaa !3
  %32 = load i32, ptr %11, align 4, !tbaa !25
  %33 = load ptr, ptr %15, align 8, !tbaa !7
  %34 = getelementptr inbounds nuw %struct.key2any_ctx_st, ptr %33, i32 0, i32 1
  %35 = load i32, ptr %34, align 8, !tbaa !17
  %36 = call i32 %30(ptr noundef %31, i32 noundef %32, i32 noundef %35, ptr noundef %17, ptr noundef %18)
  %37 = icmp ne i32 %36, 0
  br i1 %37, label %39, label %38

38:                                               ; preds = %29
  store i32 0, ptr %8, align 4
  store i32 1, ptr %20, align 4
  br label %56

39:                                               ; preds = %29, %26
  %40 = load ptr, ptr %10, align 8, !tbaa !3
  %41 = load i32, ptr %11, align 4, !tbaa !25
  %42 = load ptr, ptr %17, align 8, !tbaa !3
  %43 = load i32, ptr %18, align 4, !tbaa !25
  %44 = load ptr, ptr %14, align 8, !tbaa !3
  %45 = load ptr, ptr %15, align 8, !tbaa !7
  %46 = call ptr @key_to_encp8(ptr noundef %40, i32 noundef %41, ptr noundef %42, i32 noundef %43, ptr noundef %44, ptr noundef %45)
  store ptr %46, ptr %19, align 8, !tbaa !50
  %47 = load ptr, ptr %19, align 8, !tbaa !50
  %48 = icmp ne ptr %47, null
  br i1 %48, label %49, label %53

49:                                               ; preds = %39
  %50 = load ptr, ptr %9, align 8, !tbaa !31
  %51 = load ptr, ptr %19, align 8, !tbaa !50
  %52 = call i32 @PEM_write_bio_PKCS8(ptr noundef %50, ptr noundef %51)
  store i32 %52, ptr %16, align 4, !tbaa !25
  br label %53

53:                                               ; preds = %49, %39
  %54 = load ptr, ptr %19, align 8, !tbaa !50
  call void @X509_SIG_free(ptr noundef %54)
  %55 = load i32, ptr %16, align 4, !tbaa !25
  store i32 %55, ptr %8, align 4
  store i32 1, ptr %20, align 4
  br label %56

56:                                               ; preds = %53, %38, %25
  call void @llvm.lifetime.end.p0(i64 8, ptr %19) #4
  call void @llvm.lifetime.end.p0(i64 4, ptr %18) #4
  call void @llvm.lifetime.end.p0(i64 8, ptr %17) #4
  call void @llvm.lifetime.end.p0(i64 4, ptr %16) #4
  %57 = load i32, ptr %8, align 4
  ret i32 %57
}